; ModuleID = '29/1339.c'
source_filename = "29/1339.c"
target datalayout = "e-m:e-p270:32:32-p271:32:32-p272:64:64-i64:64-f80:128-n8:16:32:64-S128"
target triple = "x86_64-pc-linux-gnu"

@.str = private unnamed_addr constant [3 x i8] c"%d\00", align 1
@.str.1 = private unnamed_addr constant [6 x i8] c"%.3f\0A\00", align 1

; Function Attrs: noinline nounwind uwtable
define dso_local i32 @main() #0 {
  %1 = alloca i32, align 4
  %2 = alloca i32, align 4
  %3 = alloca i32, align 4
  %4 = alloca double, align 8
  %5 = alloca double, align 8
  %6 = alloca double, align 8
  %7 = alloca i32, align 4
  store i32 0, i32* %1, align 4
  %8 = call i32 (i8*, ...) @__isoc99_scanf(i8* getelementptr inbounds ([3 x i8], [3 x i8]* @.str, i64 0, i64 0), i32* %2)
  br label %9

9:                                                ; preds = %32, %0
  %10 = load i32, i32* %2, align 4
  %11 = add nsw i32 %10, -1
  store i32 %11, i32* %2, align 4
  %12 = icmp ne i32 %10, 0
  br i1 %12, label %13, label %35

13:                                               ; preds = %9
  %14 = call i32 (i8*, ...) @__isoc99_scanf(i8* getelementptr inbounds ([3 x i8], [3 x i8]* @.str, i64 0, i64 0), i32* %3)
  store double 0.000000e+00, double* %4, align 8
  store double 1.000000e+00, double* %5, align 8
  store double 2.000000e+00, double* %6, align 8
  br label %15

15:                                               ; preds = %19, %13
  %16 = load i32, i32* %3, align 4
  %17 = add nsw i32 %16, -1
  store i32 %17, i32* %3, align 4
  %18 = icmp ne i32 %16, 0
  br i1 %18, label %19, label %32

19:                                               ; preds = %15
  %20 = load double, double* %6, align 8
  %21 = load double, double* %5, align 8
  %22 = fdiv double %20, %21
  %23 = load double, double* %4, align 8
  %24 = fadd double %23, %22
  store double %24, double* %4, align 8
  %25 = load double, double* %5, align 8
  %26 = load double, double* %6, align 8
  %27 = fadd double %25, %26
  %28 = fptosi double %27 to i32
  store i32 %28, i32* %7, align 4
  %29 = load double, double* %6, align 8
  store double %29, double* %5, align 8
  %30 = load i32, i32* %7, align 4
  %31 = sitofp i32 %30 to double
  store double %31, double* %6, align 8
  br label %15

32:                                               ; preds = %15
  %33 = load double, double* %4, align 8
  %34 = call i32 (i8*, ...) @printf(i8* getelementptr inbounds ([6 x i8], [6 x i8]* @.str.1, i64 0, i64 0), double %33)
  br label %9

35:                                               ; preds = %9
  ret i32 0
}

declare dso_local i32 @__isoc99_scanf(i8*, ...) #1

declare dso_local i32 @printf(i8*, ...) #1


!llvm.module.flags = !{!0}
!llvm.ident = !{!1}

!0 = !{i32 1, !"wchar_size", i32 4}
!1 = !{!"clang version 10.0.0-4ubuntu1 "}
