; ModuleID = 'source-C-CXX/28/1339.c'
source_filename = "source-C-CXX/28/1339.c"
target datalayout = "e-m:e-p270:32:32-p271:32:32-p272:64:64-i64:64-f80:128-n8:16:32:64-S128"
target triple = "x86_64-pc-linux-gnu"

@.str = private unnamed_addr constant [3 x i8] c"%d\00", align 1
@.str.1 = private unnamed_addr constant [6 x i8] c"%.3f\0A\00", align 1

; Function Attrs: nofree nounwind sspstrong uwtable
define dso_local i32 @main() local_unnamed_addr #0 {
  %1 = alloca i32, align 4
  %2 = alloca i32, align 4
  %3 = bitcast i32* %1 to i8*
  call void @llvm.lifetime.start.p0i8(i64 4, i8* nonnull %3) #3
  %4 = call i32 (i8*, ...) @__isoc99_scanf(i8* getelementptr inbounds ([3 x i8], [3 x i8]* @.str, i64 0, i64 0), i32* nonnull %1)
  %5 = bitcast i32* %2 to i8*
  %6 = load i32, i32* %1, align 4, !tbaa !5
  %7 = add nsw i32 %6, -1
  store i32 %7, i32* %1, align 4, !tbaa !5
  %8 = icmp eq i32 %6, 0
  br i1 %8, label %47, label %9

9:                                                ; preds = %0, %41
  call void @llvm.lifetime.start.p0i8(i64 4, i8* nonnull %5) #3
  %10 = call i32 (i8*, ...) @__isoc99_scanf(i8* getelementptr inbounds ([3 x i8], [3 x i8]* @.str, i64 0, i64 0), i32* nonnull %2)
  %11 = load i32, i32* %2, align 4, !tbaa !5
  %12 = icmp eq i32 %11, 0
  br i1 %12, label %41, label %13

13:                                               ; preds = %9
  %14 = and i32 %11, 1
  %15 = icmp eq i32 %14, 0
  br i1 %15, label %18, label %16

16:                                               ; preds = %13
  %17 = add nsw i32 %11, -1
  br label %18

18:                                               ; preds = %16, %13
  %19 = phi i32 [ %17, %16 ], [ %11, %13 ]
  %20 = phi double [ 2.000000e+00, %16 ], [ 0.000000e+00, %13 ]
  %21 = phi double [ 3.000000e+00, %16 ], [ 2.000000e+00, %13 ]
  %22 = phi double [ 2.000000e+00, %16 ], [ 1.000000e+00, %13 ]
  %23 = icmp eq i32 %11, 1
  br i1 %23, label %41, label %24

24:                                               ; preds = %18, %24
  %25 = phi i32 [ %34, %24 ], [ %19, %18 ]
  %26 = phi double [ %36, %24 ], [ %20, %18 ]
  %27 = phi double [ %39, %24 ], [ %21, %18 ]
  %28 = phi double [ %33, %24 ], [ %22, %18 ]
  %29 = fdiv double %27, %28
  %30 = fadd double %26, %29
  %31 = fadd double %28, %27
  %32 = fptosi double %31 to i32
  %33 = sitofp i32 %32 to double
  %34 = add nsw i32 %25, -2
  %35 = fdiv double %33, %27
  %36 = fadd double %30, %35
  %37 = fadd double %27, %33
  %38 = fptosi double %37 to i32
  %39 = sitofp i32 %38 to double
  %40 = icmp eq i32 %34, 0
  br i1 %40, label %41, label %24, !llvm.loop !9

41:                                               ; preds = %18, %24, %9
  %42 = phi double [ 0.000000e+00, %9 ], [ 2.000000e+00, %18 ], [ %36, %24 ]
  store i32 -1, i32* %2, align 4, !tbaa !5
  %43 = call i32 (i8*, ...) @printf(i8* nonnull dereferenceable(1) getelementptr inbounds ([6 x i8], [6 x i8]* @.str.1, i64 0, i64 0), double %42)
  call void @llvm.lifetime.end.p0i8(i64 4, i8* nonnull %5) #3
  %44 = load i32, i32* %1, align 4, !tbaa !5
  %45 = add nsw i32 %44, -1
  store i32 %45, i32* %1, align 4, !tbaa !5
  %46 = icmp eq i32 %44, 0
  br i1 %46, label %47, label %9, !llvm.loop !11

47:                                               ; preds = %41, %0
  call void @llvm.lifetime.end.p0i8(i64 4, i8* nonnull %3) #3
  ret i32 0
}

; Function Attrs: argmemonly mustprogress nofree nosync nounwind willreturn
declare void @llvm.lifetime.start.p0i8(i64 immarg, i8* nocapture) #1

; Function Attrs: nofree nounwind
declare noundef i32 @__isoc99_scanf(i8* nocapture noundef readonly, ...) local_unnamed_addr #2

; Function Attrs: argmemonly mustprogress nofree nosync nounwind willreturn
declare void @llvm.lifetime.end.p0i8(i64 immarg, i8* nocapture) #1

; Function Attrs: nofree nounwind
declare noundef i32 @printf(i8* nocapture noundef readonly, ...) local_unnamed_addr #2


!llvm.module.flags = !{!0, !1, !2, !3}
!llvm.ident = !{!4}

!0 = !{i32 1, !"wchar_size", i32 4}
!1 = !{i32 7, !"PIC Level", i32 2}
!2 = !{i32 7, !"PIE Level", i32 2}
!3 = !{i32 7, !"uwtable", i32 1}
!4 = !{!"clang version 13.0.0"}
!5 = !{!6, !6, i64 0}
!6 = !{!"int", !7, i64 0}
!7 = !{!"omnipotent char", !8, i64 0}
!8 = !{!"Simple C/C++ TBAA"}
!9 = distinct !{!9, !10}
!10 = !{!"llvm.loop.mustprogress"}
!11 = distinct !{!11, !10}
